target datalayout = "e-m:e-p270:32:32-p271:32:32-p272:64:64-i64:64-i128:128-f80:128-n8:16:32:64-S128"
target triple = "x86_64-pc-linux-gnu"

%"class.std::__cxx11::basic_string" = type { %"struct.std::__cxx11::basic_string<char>::_Alloc_hider", i64, %union.anon }
%"struct.std::__cxx11::basic_string<char>::_Alloc_hider" = type { ptr }
%union.anon = type { i64, [8 x i8] }
%"class.Assimp::Exporter" = type { ptr }
%"class.Assimp::ExporterPimpl" = type { ptr, %"class.std::shared_ptr", i8, ptr, i8, %"class.std::vector.11", %"class.std::__cxx11::basic_string", %"class.std::vector.16" }
%"class.std::shared_ptr" = type { %"class.std::__shared_ptr" }
%"class.std::__shared_ptr" = type { ptr, %"class.std::__shared_count" }
%"class.std::__shared_count" = type { ptr }
%"class.std::vector.11" = type { %"struct.std::_Vector_base.12" }
%"struct.std::_Vector_base.12" = type { %"struct.std::_Vector_base<Assimp::BaseProcess *, std::allocator<Assimp::BaseProcess *>>::_Vector_impl" }
%"struct.std::_Vector_base<Assimp::BaseProcess *, std::allocator<Assimp::BaseProcess *>>::_Vector_impl" = type { %"struct.std::_Vector_base<Assimp::BaseProcess *, std::allocator<Assimp::BaseProcess *>>::_Vector_impl_data" }
%"struct.std::_Vector_base<Assimp::BaseProcess *, std::allocator<Assimp::BaseProcess *>>::_Vector_impl_data" = type { ptr, ptr, ptr }
%"class.std::vector.16" = type { %"struct.std::_Vector_base.17" }
%"struct.std::_Vector_base.17" = type { %"struct.std::_Vector_base<Assimp::Exporter::ExportFormatEntry, std::allocator<Assimp::Exporter::ExportFormatEntry>>::_Vector_impl" }
%"struct.std::_Vector_base<Assimp::Exporter::ExportFormatEntry, std::allocator<Assimp::Exporter::ExportFormatEntry>>::_Vector_impl" = type { %"struct.std::_Vector_base<Assimp::Exporter::ExportFormatEntry, std::allocator<Assimp::Exporter::ExportFormatEntry>>::_Vector_impl_data" }
%"struct.std::_Vector_base<Assimp::Exporter::ExportFormatEntry, std::allocator<Assimp::Exporter::ExportFormatEntry>>::_Vector_impl_data" = type { ptr, ptr, ptr }

; Function Attrs: mustprogress nounwind uwtable
define linkonce_odr void @_ZN6Assimp15ProgressHandlerC2Ev(ptr noundef nonnull align 8 dereferenceable(8) %0) unnamed_addr #1 comdat align 2 {
  %2 = alloca ptr, align 8
  store ptr %0, ptr %2, align 8
  %3 = load ptr, ptr %2, align 8
  store ptr getelementptr inbounds inrange(-16, 48) ({ [8 x ptr] }, ptr @_ZTVN6Assimp15ProgressHandlerE, i32 0, i32 0, i32 2), ptr %3, align 8
  ret void
}

; Function Attrs: inlinehint mustprogress nounwind uwtable
define linkonce_odr hidden void @_ZN6Assimp22DefaultProgressHandlerC2Ev(ptr noundef nonnull align 8 dereferenceable(8) %0) unnamed_addr #9 comdat align 2 {
  %2 = alloca ptr, align 8
  store ptr %0, ptr %2, align 8
  %3 = load ptr, ptr %2, align 8
  call void @_ZN6Assimp15ProgressHandlerC2Ev(ptr noundef nonnull align 8 dereferenceable(8) %3) #23
  store ptr getelementptr inbounds inrange(-16, 48) ({ [8 x ptr] }, ptr @_ZTVN6Assimp22DefaultProgressHandlerE, i32 0, i32 0, i32 2), ptr %3, align 8
  ret void
}

; Function Attrs: mustprogress uwtable
define void @_ZN6Assimp8ExporterC2Ev(ptr noundef nonnull align 8 dereferenceable(8) %0) unnamed_addr #2 align 2 personality ptr @__gxx_personality_v0 {
  %2 = alloca ptr, align 8
  %3 = alloca ptr, align 8
  %4 = alloca i32, align 4
  store ptr %0, ptr %2, align 8
  %5 = load ptr, ptr %2, align 8
  %6 = getelementptr inbounds nuw %"class.Assimp::Exporter", ptr %5, i32 0, i32 0
  %7 = call noalias noundef nonnull ptr @_Znwm(i64 noundef 128) #25
  invoke void @_ZN6Assimp13ExporterPimplC2Ev(ptr noundef nonnull align 8 dereferenceable(128) %7)
          to label %8 unwind label %13

8:                                                ; preds = %1
  store ptr %7, ptr %6, align 8
  %9 = call noundef ptr @_ZN6Assimp6Intern22AllocateFromAssimpHeapnwEm(i64 noundef 8)
  call void @llvm.memset.p0.i64(ptr align 8 %9, i8 0, i64 8, i1 false)
  call void @_ZN6Assimp22DefaultProgressHandlerC2Ev(ptr noundef nonnull align 8 dereferenceable(8) %9) #23
  %10 = getelementptr inbounds nuw %"class.Assimp::Exporter", ptr %5, i32 0, i32 0
  %11 = load ptr, ptr %10, align 8
  %12 = getelementptr inbounds nuw %"class.Assimp::ExporterPimpl", ptr %11, i32 0, i32 3
  store ptr %9, ptr %12, align 8
  ret void

13:                                               ; preds = %1
  %14 = landingpad { ptr, i32 }
          cleanup
  %15 = extractvalue { ptr, i32 } %14, 0
  store ptr %15, ptr %3, align 8
  %16 = extractvalue { ptr, i32 } %14, 1
  store i32 %16, ptr %4, align 4
  call void @_ZdlPvm(ptr noundef %7, i64 noundef 128) #22
  br label %17

17:                                               ; preds = %13
  %18 = load ptr, ptr %3, align 8
  %19 = load i32, ptr %4, align 4
  %20 = insertvalue { ptr, i32 } poison, ptr %18, 0
  %21 = insertvalue { ptr, i32 } %20, i32 %19, 1
  resume { ptr, i32 } %21
}