; Function Attrs: mustprogress uwtable
define void @_ZN6Assimp8ExporterC2Ev(ptr noundef nonnull align 8 captures(none) dereferenceable(8) %0) unnamed_addr #1 align 2 personality ptr @__gxx_personality_v0 {
  %2 = tail call noalias noundef nonnull dereferenceable(128) ptr @_Znwm(i64 noundef 128) #32
  invoke void @_ZN6Assimp13ExporterPimplC2Ev(ptr noundef nonnull align 8 dereferenceable(128) %2)
          to label %3 unwind label %7

3:                                                ; preds = %1
  store ptr %2, ptr %0, align 8
  %4 = tail call noundef ptr @_ZN6Assimp6Intern22AllocateFromAssimpHeapnwEm(i64 noundef 8)
  store ptr getelementptr inbounds nuw inrange(-16, 48) (i8, ptr @_ZTVN6Assimp22DefaultProgressHandlerE, i64 16), ptr %4, align 8
  %5 = load ptr, ptr %0, align 8
  %6 = getelementptr inbounds nuw i8, ptr %5, i64 32
  store ptr %4, ptr %6, align 8
  ret void

7:                                                ; preds = %1
  %8 = landingpad { ptr, i32 }
          cleanup
  tail call void @_ZdlPvm(ptr noundef nonnull %2, i64 noundef 128) #29
  resume { ptr, i32 } %8
}